target datalayout = "e-m:e-p270:32:32-p271:32:32-p272:64:64-i64:64-i128:128-f80:128-n8:16:32:64-S128"
target triple = "x86_64-pc-linux-gnu"

%struct.avifCodecDecodeInput = type { %struct.avifDecodeSampleArray, i32, i32 }
%struct.avifDecodeSampleArray = type { ptr, i32, i32, i32 }
%struct.avifDecodeSample = type { %struct.avifROData, i32, i32, i32, i64, i64, i8, i32 }
%struct.avifROData = type { ptr, i64 }
%struct.avifDecoderData = type { ptr, %struct.avifTrackArray, %struct.avifTileArray, [2 x %struct.avifTileInfo], i32, ptr, ptr, [4 x i8], ptr, ptr, i32 }
%struct.avifTrackArray = type { ptr, i32, i32, i32 }
%struct.avifTileArray = type { ptr, i32, i32, i32 }
%struct.avifTileInfo = type { i32, i32, i32, %struct.avifImageGrid }
%struct.avifImageGrid = type { i32, i32, i32, i32 }
%struct.avifTile = type { ptr, i32, ptr, ptr, i32, i32, i8 }

; Function Attrs: nounwind uwtable
define hidden void @avifCodecDecodeInputDestroy(ptr noundef %0) #0 {
  %2 = alloca ptr, align 8
  %3 = alloca i32, align 4
  %4 = alloca ptr, align 8
  store ptr %0, ptr %2, align 8
  store i32 0, ptr %3, align 4
  br label %5

5:                                                ; preds = %28, %1
  %6 = load i32, ptr %3, align 4
  %7 = load ptr, ptr %2, align 8
  %8 = getelementptr inbounds nuw %struct.avifCodecDecodeInput, ptr %7, i32 0, i32 0
  %9 = getelementptr inbounds nuw %struct.avifDecodeSampleArray, ptr %8, i32 0, i32 2
  %10 = load i32, ptr %9, align 4
  %11 = icmp ult i32 %6, %10
  br i1 %11, label %12, label %31

12:                                               ; preds = %5
  %13 = load ptr, ptr %2, align 8
  %14 = getelementptr inbounds nuw %struct.avifCodecDecodeInput, ptr %13, i32 0, i32 0
  %15 = getelementptr inbounds nuw %struct.avifDecodeSampleArray, ptr %14, i32 0, i32 0
  %16 = load ptr, ptr %15, align 8
  %17 = load i32, ptr %3, align 4
  %18 = zext i32 %17 to i64
  %19 = getelementptr inbounds %struct.avifDecodeSample, ptr %16, i64 %18
  store ptr %19, ptr %4, align 8
  %20 = load ptr, ptr %4, align 8
  %21 = getelementptr inbounds nuw %struct.avifDecodeSample, ptr %20, i32 0, i32 1
  %22 = load i32, ptr %21, align 8
  %23 = icmp ne i32 %22, 0
  br i1 %23, label %24, label %27

24:                                               ; preds = %12
  %25 = load ptr, ptr %4, align 8
  %26 = getelementptr inbounds nuw %struct.avifDecodeSample, ptr %25, i32 0, i32 0
  call void @avifRWDataFree(ptr noundef %26)
  br label %27

27:                                               ; preds = %24, %12
  br label %28

28:                                               ; preds = %27
  %29 = load i32, ptr %3, align 4
  %30 = add i32 %29, 1
  store i32 %30, ptr %3, align 4
  br label %5, !llvm.loop !4

31:                                               ; preds = %5
  %32 = load ptr, ptr %2, align 8
  %33 = getelementptr inbounds nuw %struct.avifCodecDecodeInput, ptr %32, i32 0, i32 0
  call void @avifArrayDestroy(ptr noundef %33)
  %34 = load ptr, ptr %2, align 8
  call void @avifFree(ptr noundef %34)
  ret void
}

; Function Attrs: nounwind uwtable
define internal void @avifDecoderDataClearTiles(ptr noundef %0) #0 {
  %2 = alloca ptr, align 8
  %3 = alloca i32, align 4
  %4 = alloca ptr, align 8
  %5 = alloca i32, align 4
  store ptr %0, ptr %2, align 8
  store i32 0, ptr %3, align 4
  br label %6

6:                                                ; preds = %71, %1
  %7 = load i32, ptr %3, align 4
  %8 = load ptr, ptr %2, align 8
  %9 = getelementptr inbounds nuw %struct.avifDecoderData, ptr %8, i32 0, i32 2
  %10 = getelementptr inbounds nuw %struct.avifTileArray, ptr %9, i32 0, i32 2
  %11 = load i32, ptr %10, align 4
  %12 = icmp ult i32 %7, %11
  br i1 %12, label %13, label %74

13:                                               ; preds = %6
  %14 = load ptr, ptr %2, align 8
  %15 = getelementptr inbounds nuw %struct.avifDecoderData, ptr %14, i32 0, i32 2
  %16 = getelementptr inbounds nuw %struct.avifTileArray, ptr %15, i32 0, i32 0
  %17 = load ptr, ptr %16, align 8
  %18 = load i32, ptr %3, align 4
  %19 = zext i32 %18 to i64
  %20 = getelementptr inbounds %struct.avifTile, ptr %17, i64 %19
  store ptr %20, ptr %4, align 8
  %21 = load ptr, ptr %4, align 8
  %22 = getelementptr inbounds nuw %struct.avifTile, ptr %21, i32 0, i32 0
  %23 = load ptr, ptr %22, align 8
  %24 = icmp ne ptr %23, null
  br i1 %24, label %25, label %31

25:                                               ; preds = %13
  %26 = load ptr, ptr %4, align 8
  %27 = getelementptr inbounds nuw %struct.avifTile, ptr %26, i32 0, i32 0
  %28 = load ptr, ptr %27, align 8
  call void @avifCodecDecodeInputDestroy(ptr noundef %28)
  %29 = load ptr, ptr %4, align 8
  %30 = getelementptr inbounds nuw %struct.avifTile, ptr %29, i32 0, i32 0
  store ptr null, ptr %30, align 8
  br label %31

31:                                               ; preds = %25, %13
  %32 = load ptr, ptr %4, align 8
  %33 = getelementptr inbounds nuw %struct.avifTile, ptr %32, i32 0, i32 2
  %34 = load ptr, ptr %33, align 8
  %35 = icmp ne ptr %34, null
  br i1 %35, label %36, label %59

36:                                               ; preds = %31
  %37 = load ptr, ptr %4, align 8
  %38 = getelementptr inbounds nuw %struct.avifTile, ptr %37, i32 0, i32 2
  %39 = load ptr, ptr %38, align 8
  %40 = load ptr, ptr %2, align 8
  %41 = getelementptr inbounds nuw %struct.avifDecoderData, ptr %40, i32 0, i32 5
  %42 = load ptr, ptr %41, align 8
  %43 = icmp ne ptr %39, %42
  br i1 %43, label %44, label %56

44:                                               ; preds = %36
  %45 = load ptr, ptr %4, align 8
  %46 = getelementptr inbounds nuw %struct.avifTile, ptr %45, i32 0, i32 2
  %47 = load ptr, ptr %46, align 8
  %48 = load ptr, ptr %2, align 8
  %49 = getelementptr inbounds nuw %struct.avifDecoderData, ptr %48, i32 0, i32 6
  %50 = load ptr, ptr %49, align 8
  %51 = icmp ne ptr %47, %50
  br i1 %51, label %52, label %56

52:                                               ; preds = %44
  %53 = load ptr, ptr %4, align 8
  %54 = getelementptr inbounds nuw %struct.avifTile, ptr %53, i32 0, i32 2
  %55 = load ptr, ptr %54, align 8
  call void @avifCodecDestroy(ptr noundef %55)
  br label %56

56:                                               ; preds = %52, %44, %36
  %57 = load ptr, ptr %4, align 8
  %58 = getelementptr inbounds nuw %struct.avifTile, ptr %57, i32 0, i32 2
  store ptr null, ptr %58, align 8
  br label %59

59:                                               ; preds = %56, %31
  %60 = load ptr, ptr %4, align 8
  %61 = getelementptr inbounds nuw %struct.avifTile, ptr %60, i32 0, i32 3
  %62 = load ptr, ptr %61, align 8
  %63 = icmp ne ptr %62, null
  br i1 %63, label %64, label %70

64:                                               ; preds = %59
  %65 = load ptr, ptr %4, align 8
  %66 = getelementptr inbounds nuw %struct.avifTile, ptr %65, i32 0, i32 3
  %67 = load ptr, ptr %66, align 8
  call void @avifImageDestroy(ptr noundef %67)
  %68 = load ptr, ptr %4, align 8
  %69 = getelementptr inbounds nuw %struct.avifTile, ptr %68, i32 0, i32 3
  store ptr null, ptr %69, align 8
  br label %70

70:                                               ; preds = %64, %59
  br label %71

71:                                               ; preds = %70
  %72 = load i32, ptr %3, align 4
  %73 = add i32 %72, 1
  store i32 %73, ptr %3, align 4
  br label %6, !llvm.loop !23

74:                                               ; preds = %6
  %75 = load ptr, ptr %2, align 8
  %76 = getelementptr inbounds nuw %struct.avifDecoderData, ptr %75, i32 0, i32 2
  %77 = getelementptr inbounds nuw %struct.avifTileArray, ptr %76, i32 0, i32 2
  store i32 0, ptr %77, align 4
  store i32 0, ptr %5, align 4
  br label %78

78:                                               ; preds = %94, %74
  %79 = load i32, ptr %5, align 4
  %80 = icmp slt i32 %79, 2
  br i1 %80, label %81, label %97

81:                                               ; preds = %78
  %82 = load ptr, ptr %2, align 8
  %83 = getelementptr inbounds nuw %struct.avifDecoderData, ptr %82, i32 0, i32 3
  %84 = load i32, ptr %5, align 4
  %85 = sext i32 %84 to i64
  %86 = getelementptr inbounds [2 x %struct.avifTileInfo], ptr %83, i64 0, i64 %85
  %87 = getelementptr inbounds nuw %struct.avifTileInfo, ptr %86, i32 0, i32 0
  store i32 0, ptr %87, align 4
  %88 = load ptr, ptr %2, align 8
  %89 = getelementptr inbounds nuw %struct.avifDecoderData, ptr %88, i32 0, i32 3
  %90 = load i32, ptr %5, align 4
  %91 = sext i32 %90 to i64
  %92 = getelementptr inbounds [2 x %struct.avifTileInfo], ptr %89, i64 0, i64 %91
  %93 = getelementptr inbounds nuw %struct.avifTileInfo, ptr %92, i32 0, i32 1
  store i32 0, ptr %93, align 4
  br label %94

94:                                               ; preds = %81
  %95 = load i32, ptr %5, align 4
  %96 = add nsw i32 %95, 1
  store i32 %96, ptr %5, align 4
  br label %78, !llvm.loop !24

97:                                               ; preds = %78
  %98 = load ptr, ptr %2, align 8
  %99 = getelementptr inbounds nuw %struct.avifDecoderData, ptr %98, i32 0, i32 5
  %100 = load ptr, ptr %99, align 8
  %101 = icmp ne ptr %100, null
  br i1 %101, label %102, label %108

102:                                              ; preds = %97
  %103 = load ptr, ptr %2, align 8
  %104 = getelementptr inbounds nuw %struct.avifDecoderData, ptr %103, i32 0, i32 5
  %105 = load ptr, ptr %104, align 8
  call void @avifCodecDestroy(ptr noundef %105)
  %106 = load ptr, ptr %2, align 8
  %107 = getelementptr inbounds nuw %struct.avifDecoderData, ptr %106, i32 0, i32 5
  store ptr null, ptr %107, align 8
  br label %108

108:                                              ; preds = %102, %97
  %109 = load ptr, ptr %2, align 8
  %110 = getelementptr inbounds nuw %struct.avifDecoderData, ptr %109, i32 0, i32 6
  %111 = load ptr, ptr %110, align 8
  %112 = icmp ne ptr %111, null
  br i1 %112, label %113, label %119

113:                                              ; preds = %108
  %114 = load ptr, ptr %2, align 8
  %115 = getelementptr inbounds nuw %struct.avifDecoderData, ptr %114, i32 0, i32 6
  %116 = load ptr, ptr %115, align 8
  call void @avifCodecDestroy(ptr noundef %116)
  %117 = load ptr, ptr %2, align 8
  %118 = getelementptr inbounds nuw %struct.avifDecoderData, ptr %117, i32 0, i32 6
  store ptr null, ptr %118, align 8
  br label %119

119:                                              ; preds = %113, %108
  ret void
}