; Function Attrs: nounwind uwtable
define internal fastcc void @avifDecoderDataClearTiles(ptr noundef nonnull captures(none) %0) unnamed_addr #0 {
  %2 = getelementptr inbounds nuw i8, ptr %0, i64 44
  %3 = load i32, ptr %2, align 4
  %.not44 = icmp eq i32 %3, 0
  br i1 %.not44, label %._crit_edge, label %.lr.ph

.lr.ph:                                           ; preds = %1
  %4 = getelementptr inbounds nuw i8, ptr %0, i64 32
  %5 = getelementptr inbounds nuw i8, ptr %0, i64 120
  %6 = getelementptr inbounds nuw i8, ptr %0, i64 128
  br label %7

7:                                                ; preds = %.lr.ph, %37
  %indvars.iv = phi i64 [ 0, %.lr.ph ], [ %indvars.iv.next, %37 ]
  %8 = load ptr, ptr %4, align 8
  %9 = getelementptr inbounds nuw %struct.avifTile, ptr %8, i64 %indvars.iv
  %10 = load ptr, ptr %9, align 8
  %.not37 = icmp eq ptr %10, null
  br i1 %.not37, label %24, label %11

11:                                               ; preds = %7
  %12 = getelementptr inbounds nuw i8, ptr %10, i64 12
  %13 = load i32, ptr %12, align 4
  %.not9.i = icmp eq i32 %13, 0
  br i1 %.not9.i, label %avifCodecDecodeInputDestroy.exit, label %.lr.ph.i

.lr.ph.i:                                         ; preds = %11, %20
  %14 = phi i32 [ %21, %20 ], [ %13, %11 ]
  %indvars.iv.i = phi i64 [ %indvars.iv.next.i, %20 ], [ 0, %11 ]
  %15 = load ptr, ptr %10, align 8
  %16 = getelementptr inbounds nuw %struct.avifDecodeSample, ptr %15, i64 %indvars.iv.i
  %17 = getelementptr inbounds nuw i8, ptr %16, i64 16
  %18 = load i32, ptr %17, align 8
  %.not.i = icmp eq i32 %18, 0
  br i1 %.not.i, label %20, label %19

19:                                               ; preds = %.lr.ph.i
  tail call void @avifRWDataFree(ptr noundef nonnull %16) #13
  %.pre.i = load i32, ptr %12, align 4
  br label %20

20:                                               ; preds = %19, %.lr.ph.i
  %21 = phi i32 [ %14, %.lr.ph.i ], [ %.pre.i, %19 ]
  %indvars.iv.next.i = add nuw nsw i64 %indvars.iv.i, 1
  %22 = zext i32 %21 to i64
  %23 = icmp samesign ult i64 %indvars.iv.next.i, %22
  br i1 %23, label %.lr.ph.i, label %avifCodecDecodeInputDestroy.exit, !llvm.loop !4

avifCodecDecodeInputDestroy.exit:                 ; preds = %20, %11
  tail call void @avifArrayDestroy(ptr noundef nonnull %10) #13
  tail call void @avifFree(ptr noundef nonnull %10) #13
  store ptr null, ptr %9, align 8
  br label %24

24:                                               ; preds = %avifCodecDecodeInputDestroy.exit, %7
  %25 = getelementptr inbounds nuw i8, ptr %9, i64 16
  %26 = load ptr, ptr %25, align 8
  %.not38 = icmp eq ptr %26, null
  br i1 %.not38, label %33, label %27

27:                                               ; preds = %24
  %28 = load ptr, ptr %5, align 8
  %.not39 = icmp eq ptr %26, %28
  br i1 %.not39, label %32, label %29

29:                                               ; preds = %27
  %30 = load ptr, ptr %6, align 8
  %.not40 = icmp eq ptr %26, %30
  br i1 %.not40, label %32, label %31

31:                                               ; preds = %29
  tail call void @avifCodecDestroy(ptr noundef nonnull %26) #13
  br label %32

32:                                               ; preds = %31, %29, %27
  store ptr null, ptr %25, align 8
  br label %33

33:                                               ; preds = %32, %24
  %34 = getelementptr inbounds nuw i8, ptr %9, i64 24
  %35 = load ptr, ptr %34, align 8
  %.not41 = icmp eq ptr %35, null
  br i1 %.not41, label %37, label %36

36:                                               ; preds = %33
  tail call void @avifImageDestroy(ptr noundef nonnull %35) #13
  store ptr null, ptr %34, align 8
  br label %37

37:                                               ; preds = %33, %36
  %indvars.iv.next = add nuw nsw i64 %indvars.iv, 1
  %38 = load i32, ptr %2, align 4
  %39 = zext i32 %38 to i64
  %40 = icmp samesign ult i64 %indvars.iv.next, %39
  br i1 %40, label %7, label %._crit_edge, !llvm.loop !46

._crit_edge:                                      ; preds = %37, %1
  store i32 0, ptr %2, align 4
  %41 = getelementptr inbounds nuw i8, ptr %0, i64 56
  store i32 0, ptr %41, align 4
  %42 = getelementptr inbounds nuw i8, ptr %0, i64 60
  store i32 0, ptr %42, align 4
  %43 = getelementptr inbounds nuw i8, ptr %0, i64 84
  store i32 0, ptr %43, align 4
  %44 = getelementptr inbounds nuw i8, ptr %0, i64 88
  store i32 0, ptr %44, align 4
  %45 = getelementptr inbounds nuw i8, ptr %0, i64 120
  %46 = load ptr, ptr %45, align 8
  %.not = icmp eq ptr %46, null
  br i1 %.not, label %48, label %47

47:                                               ; preds = %._crit_edge
  tail call void @avifCodecDestroy(ptr noundef nonnull %46) #13
  store ptr null, ptr %45, align 8
  br label %48

48:                                               ; preds = %47, %._crit_edge
  %49 = getelementptr inbounds nuw i8, ptr %0, i64 128
  %50 = load ptr, ptr %49, align 8
  %.not36 = icmp eq ptr %50, null
  br i1 %.not36, label %52, label %51

51:                                               ; preds = %48
  tail call void @avifCodecDestroy(ptr noundef nonnull %50) #13
  store ptr null, ptr %49, align 8
  br label %52

52:                                               ; preds = %51, %48
  ret void
}